Certificate:
    Data:
        Version: 3 (0x2)
        Serial Number:
            f5:55:9e:e3:be:57:a6:a6:3e:0b:1c:f2:07:d9:58:df
    Signature Algorithm: sha256WithRSAEncryption
        Issuer: CN=116.118.48.169
        Validity
            Not Before: May 23 08:26:41 2023 GMT
            Not After : May 22 08:26:41 2024 GMT
        Subject: CN=116.118.48.169
        Subject Public Key Info:
            Public Key Algorithm: rsaEncryption
                Public-Key: (2048 bit)
                Modulus:
                    00:b6:a1:d6:4b:5e:f5:51:fe:54:ad:37:f7:55:c8:
                    50:90:af:1b:ce:61:4a:c4:15:ec:af:6a:b7:40:ac:
                    17:7b:05:53:68:99:1d:a5:e5:1c:ec:c9:28:fc:9a:
                    9f:77:4c:df:dd:6d:c1:9e:0e:e2:e9:94:f0:e4:3d:
                    bb:e4:02:d0:6a:90:c6:c1:bd:22:0d:08:49:06:4f:
                    2e:b0:08:93:21:b7:78:08:46:2e:f5:33:d4:d4:7a:
                    1b:29:62:c6:79:59:4f:b6:c8:15:cd:b6:e4:07:3b:
                    7d:18:ee:1b:64:38:d3:a0:2a:18:9f:90:f7:48:b1:
                    38:75:88:3a:3c:2e:89:0b:01:0b:5f:46:cb:1a:ff:
                    61:43:ad:1d:c6:5d:06:ba:e8:3f:3a:03:1e:f3:45:
                    15:f9:76:cd:5a:cd:50:b0:90:a4:8f:98:03:ea:b1:
                    e4:cc:73:cb:3c:fc:1c:09:b7:66:75:ab:a7:9b:0a:
                    b8:04:32:3d:d9:ab:a3:9d:60:80:e8:e6:e3:ab:ad:
                    09:dd:e8:a7:3c:08:68:33:2f:75:0a:48:58:48:8e:
                    7e:1b:5b:d7:69:34:0d:b5:e4:f2:45:de:be:d9:cc:
                    aa:a8:0e:23:3b:22:7b:3b:9e:08:b3:52:3b:59:82:
                    9c:67:0a:35:0b:55:29:3b:ed:14:5e:c1:79:28:55:
                    fa:2d
                Exponent: 65537 (0x10001)
        X509v3 extensions:
            X509v3 Basic Constraints: 
                CA:FALSE
            X509v3 Subject Key Identifier: 
                B4:D9:B0:E5:9E:1C:84:BC:44:27:18:39:9A:3F:1B:4A:78:B7:B4:C4
            X509v3 Authority Key Identifier: 
                keyid:D6:8E:E3:CB:AB:47:A5:99:25:07:26:82:55:43:01:07:2B:46:71:DF
                DirName:/CN=116.118.48.169
                serial:D4:84:DE:23:03:A0:D8:1F

            X509v3 Extended Key Usage: 
                TLS Web Server Authentication
            X509v3 Key Usage: 
                Digital Signature, Key Encipherment
            X509v3 Subject Alternative Name: 
                DNS:116.118.48.169
    Signature Algorithm: sha256WithRSAEncryption
         af:b3:5e:32:72:51:99:0b:9b:3c:23:a7:17:1d:bf:03:53:e3:
         b2:04:df:a6:1c:b6:ad:4a:d6:73:b7:0d:08:f1:b5:6f:a9:89:
         7d:b2:0e:d6:36:d8:69:38:ee:bd:d8:ab:4f:a4:d3:a6:3f:ea:
         9f:0d:ab:ac:4f:a4:7c:9c:60:c6:de:27:93:43:94:25:a2:68:
         0f:3e:5f:be:fe:c8:0d:d5:62:2f:df:df:40:e1:6d:85:ea:ad:
         4d:44:fe:20:2e:56:34:ab:fe:7d:50:62:44:16:c6:8a:3e:c3:
         84:5b:5a:89:6c:ae:20:75:98:5c:bd:91:08:51:53:3a:8c:d1:
         e9:b0:3f:c9:8c:bd:27:83:4d:42:99:0e:5f:56:b5:68:ac:8c:
         86:c8:1e:e3:d1:da:0a:8b:a2:d8:08:a4:05:1c:e1:a0:20:62:
         b3:ec:0b:d5:79:d7:57:53:35:94:f3:08:8a:f6:da:a2:18:63:
         d9:fe:ee:3e:9a:8c:6a:c1:c3:a5:16:b0:a9:44:bb:fa:d3:ac:
         f0:18:37:07:4c:ee:1d:d5:95:78:cf:c8:3d:dc:a3:d2:e3:e3:
         79:20:67:b0:6a:ce:10:0a:07:ea:07:07:92:48:c6:68:c1:3c:
         76:8e:46:8e:9d:1d:a1:58:54:b2:db:39:a4:34:a8:18:9c:98:
         5d:6e:9c:74
-----BEGIN CERTIFICATE-----
MIIDczCCAlugAwIBAgIRAPVVnuO+V6amPgsc8gfZWN8wDQYJKoZIhvcNAQELBQAw
GTEXMBUGA1UEAwwOMTE2LjExOC40OC4xNjkwHhcNMjMwNTIzMDgyNjQxWhcNMjQw
NTIyMDgyNjQxWjAZMRcwFQYDVQQDDA4xMTYuMTE4LjQ4LjE2OTCCASIwDQYJKoZI
hvcNAQEBBQADggEPADCCAQoCggEBALah1kte9VH+VK0391XIUJCvG85hSsQV7K9q
t0CsF3sFU2iZHaXlHOzJKPyan3dM391twZ4O4umU8OQ9u+QC0GqQxsG9Ig0ISQZP
LrAIkyG3eAhGLvUz1NR6GylixnlZT7bIFc225Ac7fRjuG2Q406AqGJ+Q90ixOHWI
OjwuiQsBC19Gyxr/YUOtHcZdBrroPzoDHvNFFfl2zVrNULCQpI+YA+qx5Mxzyzz8
HAm3ZnWrp5sKuAQyPdmro51ggOjm46utCd3opzwIaDMvdQpIWEiOfhtb12k0DbXk
8kXevtnMqqgOIzsiezueCLNSO1mCnGcKNQtVKTvtFF7BeShV+i0CAwEAAaOBtTCB
sjAJBgNVHRMEAjAAMB0GA1UdDgQWBBS02bDlnhyEvEQnGDmaPxtKeLe0xDBJBgNV
HSMEQjBAgBTWjuPLq0elmSUHJoJVQwEHK0Zx36EdpBswGTEXMBUGA1UEAwwOMTE2
LjExOC40OC4xNjmCCQDUhN4jA6DYHzATBgNVHSUEDDAKBggrBgEFBQcDATALBgNV
HQ8EBAMCBaAwGQYDVR0RBBIwEIIOMTE2LjExOC40OC4xNjkwDQYJKoZIhvcNAQEL
BQADggEBAK+zXjJyUZkLmzwjpxcdvwNT47IE36Yctq1K1nO3DQjxtW+piX2yDtY2
2Gk47r3Yq0+k06Y/6p8Nq6xPpHycYMbeJ5NDlCWiaA8+X77+yA3VYi/f30DhbYXq
rU1E/iAuVjSr/n1QYkQWxoo+w4RbWolsriB1mFy9kQhRUzqM0emwP8mMvSeDTUKZ
Dl9WtWisjIbIHuPR2gqLotgIpAUc4aAgYrPsC9V511dTNZTzCIr22qIYY9n+7j6a
jGrBw6UWsKlEu/rTrPAYNwdM7h3VlXjPyD3co9Lj43kgZ7BqzhAKB+oHB5JIxmjB
PHaORo6dHaFYVLLbOaQ0qBicmF1unHQ=
-----END CERTIFICATE-----
